target datalayout = "e-m:e-p270:32:32-p271:32:32-p272:64:64-i64:64-i128:128-f80:128-n8:16:32:64-S128"
target triple = "x86_64-pc-linux-gnu"

; Function Attrs: nounwind uwtable
define internal i32 @H5VM_log2_gen(i64 noundef %0) #0 {
  %2 = alloca i64, align 8
  %3 = alloca i32, align 4
  %4 = alloca i32, align 4
  %5 = alloca i32, align 4
  %6 = alloca i32, align 4
  store i64 %0, ptr %2, align 8
  %7 = load i64, ptr %2, align 8
  %8 = lshr i64 %7, 32
  %9 = trunc i64 %8 to i32
  store i32 %9, ptr %6, align 4
  %10 = icmp ne i32 %9, 0
  br i1 %10, label %11, label %61

11:                                               ; preds = %1
  %12 = load i64, ptr %2, align 8
  %13 = lshr i64 %12, 48
  %14 = trunc i64 %13 to i32
  store i32 %14, ptr %5, align 4
  %15 = icmp ne i32 %14, 0
  br i1 %15, label %16, label %38

16:                                               ; preds = %11
  %17 = load i64, ptr %2, align 8
  %18 = lshr i64 %17, 56
  %19 = trunc i64 %18 to i32
  store i32 %19, ptr %4, align 4
  %20 = icmp ne i32 %19, 0
  br i1 %20, label %21, label %28

21:                                               ; preds = %16
  %22 = load i32, ptr %4, align 4
  %23 = zext i32 %22 to i64
  %24 = getelementptr inbounds [256 x i8], ptr @LogTable256, i64 0, i64 %23
  %25 = load i8, ptr %24, align 1
  %26 = zext i8 %25 to i32
  %27 = add i32 56, %26
  br label %36

28:                                               ; preds = %16
  %29 = load i32, ptr %5, align 4
  %30 = and i32 %29, 255
  %31 = zext i32 %30 to i64
  %32 = getelementptr inbounds [256 x i8], ptr @LogTable256, i64 0, i64 %31
  %33 = load i8, ptr %32, align 1
  %34 = zext i8 %33 to i32
  %35 = add i32 48, %34
  br label %36

36:                                               ; preds = %28, %21
  %37 = phi i32 [ %27, %21 ], [ %35, %28 ]
  store i32 %37, ptr %3, align 4
  br label %60

38:                                               ; preds = %11
  %39 = load i64, ptr %2, align 8
  %40 = lshr i64 %39, 40
  %41 = trunc i64 %40 to i32
  store i32 %41, ptr %4, align 4
  %42 = icmp ne i32 %41, 0
  br i1 %42, label %43, label %50

43:                                               ; preds = %38
  %44 = load i32, ptr %4, align 4
  %45 = zext i32 %44 to i64
  %46 = getelementptr inbounds [256 x i8], ptr @LogTable256, i64 0, i64 %45
  %47 = load i8, ptr %46, align 1
  %48 = zext i8 %47 to i32
  %49 = add i32 40, %48
  br label %58

50:                                               ; preds = %38
  %51 = load i32, ptr %6, align 4
  %52 = and i32 %51, 255
  %53 = zext i32 %52 to i64
  %54 = getelementptr inbounds [256 x i8], ptr @LogTable256, i64 0, i64 %53
  %55 = load i8, ptr %54, align 1
  %56 = zext i8 %55 to i32
  %57 = add i32 32, %56
  br label %58

58:                                               ; preds = %50, %43
  %59 = phi i32 [ %49, %43 ], [ %57, %50 ]
  store i32 %59, ptr %3, align 4
  br label %60

60:                                               ; preds = %58, %36
  br label %110

61:                                               ; preds = %1
  %62 = load i64, ptr %2, align 8
  %63 = lshr i64 %62, 16
  %64 = trunc i64 %63 to i32
  store i32 %64, ptr %5, align 4
  %65 = icmp ne i32 %64, 0
  br i1 %65, label %66, label %88

66:                                               ; preds = %61
  %67 = load i64, ptr %2, align 8
  %68 = lshr i64 %67, 24
  %69 = trunc i64 %68 to i32
  store i32 %69, ptr %4, align 4
  %70 = icmp ne i32 %69, 0
  br i1 %70, label %71, label %78

71:                                               ; preds = %66
  %72 = load i32, ptr %4, align 4
  %73 = zext i32 %72 to i64
  %74 = getelementptr inbounds [256 x i8], ptr @LogTable256, i64 0, i64 %73
  %75 = load i8, ptr %74, align 1
  %76 = zext i8 %75 to i32
  %77 = add i32 24, %76
  br label %86

78:                                               ; preds = %66
  %79 = load i32, ptr %5, align 4
  %80 = and i32 %79, 255
  %81 = zext i32 %80 to i64
  %82 = getelementptr inbounds [256 x i8], ptr @LogTable256, i64 0, i64 %81
  %83 = load i8, ptr %82, align 1
  %84 = zext i8 %83 to i32
  %85 = add i32 16, %84
  br label %86

86:                                               ; preds = %78, %71
  %87 = phi i32 [ %77, %71 ], [ %85, %78 ]
  store i32 %87, ptr %3, align 4
  br label %109

88:                                               ; preds = %61
  %89 = load i64, ptr %2, align 8
  %90 = lshr i64 %89, 8
  %91 = trunc i64 %90 to i32
  store i32 %91, ptr %4, align 4
  %92 = icmp ne i32 %91, 0
  br i1 %92, label %93, label %100

93:                                               ; preds = %88
  %94 = load i32, ptr %4, align 4
  %95 = zext i32 %94 to i64
  %96 = getelementptr inbounds [256 x i8], ptr @LogTable256, i64 0, i64 %95
  %97 = load i8, ptr %96, align 1
  %98 = zext i8 %97 to i32
  %99 = add i32 8, %98
  br label %107

100:                                              ; preds = %88
  %101 = load i64, ptr %2, align 8
  %102 = trunc i64 %101 to i8
  %103 = zext i8 %102 to i64
  %104 = getelementptr inbounds [256 x i8], ptr @LogTable256, i64 0, i64 %103
  %105 = load i8, ptr %104, align 1
  %106 = zext i8 %105 to i32
  br label %107

107:                                              ; preds = %100, %93
  %108 = phi i32 [ %99, %93 ], [ %106, %100 ]
  store i32 %108, ptr %3, align 4
  br label %109

109:                                              ; preds = %107, %86
  br label %110

110:                                              ; preds = %109, %60
  %111 = load i32, ptr %3, align 4
  ret i32 %111
}

; Function Attrs: nounwind uwtable
define internal i32 @H5VM_limit_enc_size(i64 noundef %0) #0 {
  %2 = alloca i64, align 8
  store i64 %0, ptr %2, align 8
  %3 = load i64, ptr %2, align 8
  %4 = call i32 @H5VM_log2_gen(i64 noundef %3)
  %5 = udiv i32 %4, 8
  %6 = add i32 %5, 1
  ret i32 %6
}

; Function Attrs: nounwind uwtable
define i32 @H5P__encode_size_t(ptr noundef %0, ptr noundef %1, ptr noundef %2) #0 {
  %4 = alloca ptr, align 8
  %5 = alloca ptr, align 8
  %6 = alloca ptr, align 8
  %7 = alloca i64, align 8
  %8 = alloca ptr, align 8
  %9 = alloca i32, align 4
  %10 = alloca i64, align 8
  %11 = alloca i64, align 8
  %12 = alloca ptr, align 8
  store ptr %0, ptr %4, align 8
  store ptr %1, ptr %5, align 8
  store ptr %2, ptr %6, align 8
  %13 = load ptr, ptr %4, align 8
  %14 = load i64, ptr %13, align 8
  store i64 %14, ptr %7, align 8
  %15 = load ptr, ptr %5, align 8
  store ptr %15, ptr %8, align 8
  %16 = load i64, ptr %7, align 8
  %17 = call i32 @H5VM_limit_enc_size(i64 noundef %16)
  store i32 %17, ptr %9, align 4
  %18 = load ptr, ptr %8, align 8
  %19 = load ptr, ptr %18, align 8
  %20 = icmp ne ptr null, %19
  br i1 %20, label %21, label %55

21:                                               ; preds = %3
  %22 = load i32, ptr %9, align 4
  %23 = trunc i32 %22 to i8
  %24 = load ptr, ptr %8, align 8
  %25 = load ptr, ptr %24, align 8
  %26 = getelementptr inbounds i8, ptr %25, i32 1
  store ptr %26, ptr %24, align 8
  store i8 %23, ptr %25, align 1
  br label %27

27:                                               ; preds = %21
  %28 = load i64, ptr %7, align 8
  store i64 %28, ptr %10, align 8
  %29 = load ptr, ptr %8, align 8
  %30 = load ptr, ptr %29, align 8
  store ptr %30, ptr %12, align 8
  store i64 0, ptr %11, align 8
  br label %31

31:                                               ; preds = %42, %27
  %32 = load i64, ptr %11, align 8
  %33 = load i32, ptr %9, align 4
  %34 = zext i32 %33 to i64
  %35 = icmp ult i64 %32, %34
  br i1 %35, label %36, label %47

36:                                               ; preds = %31
  %37 = load i64, ptr %10, align 8
  %38 = and i64 %37, 255
  %39 = trunc i64 %38 to i8
  %40 = load ptr, ptr %12, align 8
  %41 = getelementptr inbounds i8, ptr %40, i32 1
  store ptr %41, ptr %12, align 8
  store i8 %39, ptr %40, align 1
  br label %42

42:                                               ; preds = %36
  %43 = load i64, ptr %11, align 8
  %44 = add i64 %43, 1
  store i64 %44, ptr %11, align 8
  %45 = load i64, ptr %10, align 8
  %46 = lshr i64 %45, 8
  store i64 %46, ptr %10, align 8
  br label %31

47:                                               ; preds = %31
  %48 = load ptr, ptr %8, align 8
  %49 = load ptr, ptr %48, align 8
  %50 = load i32, ptr %9, align 4
  %51 = zext i32 %50 to i64
  %52 = getelementptr inbounds i8, ptr %49, i64 %51
  %53 = load ptr, ptr %8, align 8
  store ptr %52, ptr %53, align 8
  br label %54

54:                                               ; preds = %47
  br label %55

55:                                               ; preds = %54, %3
  %56 = load i32, ptr %9, align 4
  %57 = add i32 1, %56
  %58 = zext i32 %57 to i64
  %59 = load ptr, ptr %6, align 8
  %60 = load i64, ptr %59, align 8
  %61 = add i64 %60, %58
  store i64 %61, ptr %59, align 8
  ret i32 0
}