; Function Attrs: nofree norecurse nosync nounwind memory(write, argmem: readwrite, inaccessiblemem: none) uwtable
define noundef i32 @H5P__encode_size_t(ptr noundef readonly captures(none) %0, ptr noundef captures(none) %1, ptr noundef captures(none) %2) local_unnamed_addr #0 {
  %4 = load i64, ptr %0, align 8
  %5 = lshr i64 %4, 32
  %.not.i.i = icmp ult i64 %4, 4294967296
  br i1 %.not.i.i, label %32, label %6

6:                                                ; preds = %3
  %7 = lshr i64 %4, 48
  %.not26.i.i = icmp ult i64 %4, 281474976710656
  br i1 %.not26.i.i, label %20, label %8

8:                                                ; preds = %6
  %.not28.i.i = icmp ult i64 %4, 72057594037927936
  br i1 %.not28.i.i, label %15, label %9

9:                                                ; preds = %8
  %10 = lshr i64 %4, 56
  %11 = getelementptr inbounds nuw [256 x i8], ptr @LogTable256, i64 0, i64 %10
  %12 = load i8, ptr %11, align 1
  %13 = zext i8 %12 to i32
  %14 = add nuw nsw i32 %13, 56
  br label %H5VM_limit_enc_size.exit

15:                                               ; preds = %8
  %16 = getelementptr inbounds nuw [256 x i8], ptr @LogTable256, i64 0, i64 %7
  %17 = load i8, ptr %16, align 1
  %18 = zext i8 %17 to i32
  %19 = add nuw nsw i32 %18, 48
  br label %H5VM_limit_enc_size.exit

20:                                               ; preds = %6
  %.not27.i.i = icmp samesign ult i64 %4, 1099511627776
  br i1 %.not27.i.i, label %27, label %21

21:                                               ; preds = %20
  %22 = lshr i64 %4, 40
  %23 = getelementptr inbounds nuw [256 x i8], ptr @LogTable256, i64 0, i64 %22
  %24 = load i8, ptr %23, align 1
  %25 = zext i8 %24 to i32
  %26 = add nuw nsw i32 %25, 40
  br label %H5VM_limit_enc_size.exit

27:                                               ; preds = %20
  %28 = getelementptr inbounds nuw [256 x i8], ptr @LogTable256, i64 0, i64 %5
  %29 = load i8, ptr %28, align 1
  %30 = zext i8 %29 to i32
  %31 = add nuw nsw i32 %30, 32
  br label %H5VM_limit_enc_size.exit

32:                                               ; preds = %3
  %33 = lshr i64 %4, 16
  %.not23.i.i = icmp samesign ult i64 %4, 65536
  br i1 %.not23.i.i, label %46, label %34

34:                                               ; preds = %32
  %.not25.i.i = icmp samesign ult i64 %4, 16777216
  br i1 %.not25.i.i, label %41, label %35

35:                                               ; preds = %34
  %36 = lshr i64 %4, 24
  %37 = getelementptr inbounds nuw [256 x i8], ptr @LogTable256, i64 0, i64 %36
  %38 = load i8, ptr %37, align 1
  %39 = zext i8 %38 to i32
  %40 = add nuw nsw i32 %39, 24
  br label %H5VM_limit_enc_size.exit

41:                                               ; preds = %34
  %42 = getelementptr inbounds nuw [256 x i8], ptr @LogTable256, i64 0, i64 %33
  %43 = load i8, ptr %42, align 1
  %44 = zext i8 %43 to i32
  %45 = add nuw nsw i32 %44, 16
  br label %H5VM_limit_enc_size.exit

46:                                               ; preds = %32
  %.not24.i.i = icmp samesign ult i64 %4, 256
  br i1 %.not24.i.i, label %53, label %47

47:                                               ; preds = %46
  %48 = lshr i64 %4, 8
  %49 = getelementptr inbounds nuw [256 x i8], ptr @LogTable256, i64 0, i64 %48
  %50 = load i8, ptr %49, align 1
  %51 = zext i8 %50 to i32
  %52 = add nuw nsw i32 %51, 8
  br label %H5VM_limit_enc_size.exit

53:                                               ; preds = %46
  %54 = getelementptr inbounds nuw [256 x i8], ptr @LogTable256, i64 0, i64 %4
  %55 = load i8, ptr %54, align 1
  %56 = zext i8 %55 to i32
  br label %H5VM_limit_enc_size.exit

H5VM_limit_enc_size.exit:                         ; preds = %9, %15, %21, %27, %35, %41, %47, %53
  %.0.i.i = phi i32 [ %14, %9 ], [ %19, %15 ], [ %26, %21 ], [ %31, %27 ], [ %40, %35 ], [ %45, %41 ], [ %52, %47 ], [ %56, %53 ]
  %57 = lshr i32 %.0.i.i, 3
  %58 = load ptr, ptr %1, align 8
  %.not = icmp eq ptr %58, null
  br i1 %.not, label %73, label %59

59:                                               ; preds = %H5VM_limit_enc_size.exit
  %60 = add nuw nsw i32 %57, 1
  %61 = trunc nuw nsw i32 %60 to i8
  %62 = getelementptr inbounds nuw i8, ptr %58, i64 1
  store ptr %62, ptr %1, align 8
  store i8 %61, ptr %58, align 1
  %63 = load ptr, ptr %1, align 8
  %64 = zext nneg i32 %60 to i64
  br label %65

65:                                               ; preds = %59, %65
  %.024 = phi ptr [ %63, %59 ], [ %67, %65 ]
  %.01823 = phi i64 [ 0, %59 ], [ %68, %65 ]
  %.01922 = phi i64 [ %4, %59 ], [ %69, %65 ]
  %66 = trunc i64 %.01922 to i8
  %67 = getelementptr inbounds nuw i8, ptr %.024, i64 1
  store i8 %66, ptr %.024, align 1
  %68 = add nuw nsw i64 %.01823, 1
  %69 = lshr i64 %.01922, 8
  %exitcond.not = icmp eq i64 %68, %64
  br i1 %exitcond.not, label %70, label %65

70:                                               ; preds = %65
  %71 = load ptr, ptr %1, align 8
  %72 = getelementptr inbounds nuw i8, ptr %71, i64 %64
  store ptr %72, ptr %1, align 8
  br label %73

73:                                               ; preds = %70, %H5VM_limit_enc_size.exit
  %74 = add nuw nsw i32 %57, 2
  %75 = zext nneg i32 %74 to i64
  %76 = load i64, ptr %2, align 8
  %77 = add i64 %76, %75
  store i64 %77, ptr %2, align 8
  ret i32 0
}